target datalayout = "e-m:e-p270:32:32-p271:32:32-p272:64:64-i64:64-i128:128-f80:128-n8:16:32:64-S128"
target triple = "x86_64-pc-linux-gnu"

%struct.CVodeMemRec = type { ptr, double, ptr, ptr, i32, i32, double, double, ptr, i32, i32, ptr, ptr, i32, i32, ptr, i32, i32, double, double, ptr, i32, i32, i32, i32, ptr, ptr, ptr, i32, i32, ptr, ptr, ptr, i32, double, i32, i32, double, ptr, ptr, ptr, i32, ptr, ptr, i32, i32, i32, double, ptr, ptr, ptr, [13 x ptr], ptr, ptr, ptr, ptr, ptr, ptr, ptr, ptr, ptr, [13 x ptr], ptr, ptr, ptr, ptr, [13 x ptr], ptr, ptr, ptr, ptr, ptr, i32, [13 x ptr], ptr, ptr, ptr, ptr, ptr, i32, i32, double, i32, i32, i32, i32, i32, double, double, double, double, double, double, double, double, [14 x double], [6 x double], [13 x double], double, double, double, double, double, double, double, double, i32, double, double, i32, double, double, ptr, i32, i64, i32, i32, i32, double, double, double, double, double, double, double, double, double, double, double, double, i64, i32, i64, i64, i64, i64, i64, i64, i64, i64, i64, ptr, i64, i64, ptr, i64, i64, ptr, i64, i64, i64, i64, i64, i64, i32, double, double, double, i64, i64, i64, i64, i64, i64, ptr, i32, ptr, i32, ptr, i32, ptr, i32, i32, i64, i32, ptr, i32, ptr, ptr, ptr, ptr, ptr, ptr, i32, i32, ptr, ptr, ptr, ptr, ptr, i64, double, i32, i32, i64, double, double, double, i32, i32, double, i32, i32, i32, i32, i32, i32, i32, i32, i32, i32, i32, i32, i32, i32, i32, i32, ptr, i64, i32, [6 x [4 x double]], i32, i64, ptr, i32, ptr, ptr, double, double, double, ptr, ptr, ptr, double, double, i32, i32, i64, ptr, i32, ptr, i32, i32, [13 x double], ptr, ptr, ptr, i32, ptr, i32 }
%struct.CVadjMemRec = type { double, double, i32, i32, double, i32, double, ptr, i32, ptr, i32, ptr, i32, ptr, i64, i64, ptr, i64, i32, ptr, ptr, ptr, ptr, i32, i32, i32, i32, [13 x ptr], [13 x ptr], [13 x double], ptr, ptr }
%struct.CVodeBMemRec = type { i32, double, ptr, i32, i32, ptr, ptr, ptr, ptr, ptr, ptr, ptr, ptr, ptr, double, ptr, ptr }

@.str = private unnamed_addr constant [120 x i8] c"generated/home/dtcxzyw/WorkSpace/Projects/compilers/llvm-opt-benchmark/bench/sundials/sundials/src/cvodes/cvodes_diag.c\00", align 1
@.str.1 = private unnamed_addr constant [27 x i8] c"Integrator memory is NULL.\00", align 1
@__func__.CVDiagB = private unnamed_addr constant [8 x i8] c"CVDiagB\00", align 1
@.str.15 = private unnamed_addr constant [55 x i8] c"Illegal attempt to call before calling CVodeAdjMalloc.\00", align 1
@.str.16 = private unnamed_addr constant [25 x i8] c"Illegal value for which.\00", align 1

; Function Attrs: nounwind uwtable
define i32 @CVDiagB(ptr noundef %0, i32 noundef %1) #0 {
  %3 = alloca i32, align 4
  %4 = alloca ptr, align 8
  %5 = alloca i32, align 4
  %6 = alloca ptr, align 8
  %7 = alloca ptr, align 8
  %8 = alloca ptr, align 8
  %9 = alloca ptr, align 8
  %10 = alloca i32, align 4
  %11 = alloca i32, align 4
  store ptr %0, ptr %4, align 8, !tbaa !3
  store i32 %1, ptr %5, align 4, !tbaa !40
  call void @llvm.lifetime.start.p0(i64 8, ptr %6) #5
  call void @llvm.lifetime.start.p0(i64 8, ptr %7) #5
  call void @llvm.lifetime.start.p0(i64 8, ptr %8) #5
  call void @llvm.lifetime.start.p0(i64 8, ptr %9) #5
  call void @llvm.lifetime.start.p0(i64 4, ptr %10) #5
  %12 = load ptr, ptr %4, align 8, !tbaa !3
  %13 = icmp eq ptr %12, null
  br i1 %13, label %14, label %15

14:                                               ; preds = %2
  call void (ptr, i32, i32, ptr, ptr, ptr, ...) @cvProcessError(ptr noundef null, i32 noundef -1, i32 noundef 489, ptr noundef @__func__.CVDiagB, ptr noundef @.str, ptr noundef @.str.1)
  store i32 -1, ptr %3, align 4
  store i32 1, ptr %11, align 4
  br label %59

15:                                               ; preds = %2
  %16 = load ptr, ptr %4, align 8, !tbaa !3
  store ptr %16, ptr %6, align 8, !tbaa !7
  %17 = load ptr, ptr %6, align 8, !tbaa !7
  %18 = getelementptr inbounds nuw %struct.CVodeMemRec, ptr %17, i32 0, i32 249
  %19 = load i32, ptr %18, align 8, !tbaa !59
  %20 = icmp eq i32 %19, 0
  br i1 %20, label %21, label %23

21:                                               ; preds = %15
  %22 = load ptr, ptr %6, align 8, !tbaa !7
  call void (ptr, i32, i32, ptr, ptr, ptr, ...) @cvProcessError(ptr noundef %22, i32 noundef -101, i32 noundef 498, ptr noundef @__func__.CVDiagB, ptr noundef @.str, ptr noundef @.str.15)
  store i32 -101, ptr %3, align 4
  store i32 1, ptr %11, align 4
  br label %59

23:                                               ; preds = %15
  %24 = load ptr, ptr %6, align 8, !tbaa !7
  %25 = getelementptr inbounds nuw %struct.CVodeMemRec, ptr %24, i32 0, i32 248
  %26 = load ptr, ptr %25, align 8, !tbaa !60
  store ptr %26, ptr %7, align 8, !tbaa !61
  %27 = load i32, ptr %5, align 4, !tbaa !40
  %28 = load ptr, ptr %7, align 8, !tbaa !61
  %29 = getelementptr inbounds nuw %struct.CVadjMemRec, ptr %28, i32 0, i32 8
  %30 = load i32, ptr %29, align 8, !tbaa !62
  %31 = icmp sge i32 %27, %30
  br i1 %31, label %32, label %34

32:                                               ; preds = %23
  %33 = load ptr, ptr %6, align 8, !tbaa !7
  call void (ptr, i32, i32, ptr, ptr, ptr, ...) @cvProcessError(ptr noundef %33, i32 noundef -3, i32 noundef 507, ptr noundef @__func__.CVDiagB, ptr noundef @.str, ptr noundef @.str.16)
  store i32 -3, ptr %3, align 4
  store i32 1, ptr %11, align 4
  br label %59

34:                                               ; preds = %23
  %35 = load ptr, ptr %7, align 8, !tbaa !61
  %36 = getelementptr inbounds nuw %struct.CVadjMemRec, ptr %35, i32 0, i32 7
  %37 = load ptr, ptr %36, align 8, !tbaa !67
  store ptr %37, ptr %8, align 8, !tbaa !68
  br label %38

38:                                               ; preds = %48, %34
  %39 = load ptr, ptr %8, align 8, !tbaa !68
  %40 = icmp ne ptr %39, null
  br i1 %40, label %41, label %52

41:                                               ; preds = %38
  %42 = load i32, ptr %5, align 4, !tbaa !40
  %43 = load ptr, ptr %8, align 8, !tbaa !68
  %44 = getelementptr inbounds nuw %struct.CVodeBMemRec, ptr %43, i32 0, i32 0
  %45 = load i32, ptr %44, align 8, !tbaa !69
  %46 = icmp eq i32 %42, %45
  br i1 %46, label %47, label %48

47:                                               ; preds = %41
  br label %52

48:                                               ; preds = %41
  %49 = load ptr, ptr %8, align 8, !tbaa !68
  %50 = getelementptr inbounds nuw %struct.CVodeBMemRec, ptr %49, i32 0, i32 16
  %51 = load ptr, ptr %50, align 8, !tbaa !71
  store ptr %51, ptr %8, align 8, !tbaa !68
  br label %38

52:                                               ; preds = %47, %38
  %53 = load ptr, ptr %8, align 8, !tbaa !68
  %54 = getelementptr inbounds nuw %struct.CVodeBMemRec, ptr %53, i32 0, i32 2
  %55 = load ptr, ptr %54, align 8, !tbaa !72
  store ptr %55, ptr %9, align 8, !tbaa !3
  %56 = load ptr, ptr %9, align 8, !tbaa !3
  %57 = call i32 @CVDiag(ptr noundef %56)
  store i32 %57, ptr %10, align 4, !tbaa !40
  %58 = load i32, ptr %10, align 4, !tbaa !40
  store i32 %58, ptr %3, align 4
  store i32 1, ptr %11, align 4
  br label %59

59:                                               ; preds = %52, %32, %21, %14
  call void @llvm.lifetime.end.p0(i64 4, ptr %10) #5
  call void @llvm.lifetime.end.p0(i64 8, ptr %9) #5
  call void @llvm.lifetime.end.p0(i64 8, ptr %8) #5
  call void @llvm.lifetime.end.p0(i64 8, ptr %7) #5
  call void @llvm.lifetime.end.p0(i64 8, ptr %6) #5
  %60 = load i32, ptr %3, align 4
  ret i32 %60
}