; Function Attrs: nounwind uwtable
define range(i32 -101, 1) i32 @CVDiagB(ptr noundef %0, i32 noundef %1) local_unnamed_addr #0 {
  %3 = icmp eq ptr %0, null
  br i1 %3, label %4, label %5

4:                                                ; preds = %2
  tail call void (ptr, i32, i32, ptr, ptr, ptr, ...) @cvProcessError(ptr noundef null, i32 noundef -1, i32 noundef 489, ptr noundef nonnull @__func__.CVDiagB, ptr noundef nonnull @.str, ptr noundef nonnull @.str.1) #8
  br label %24

5:                                                ; preds = %2
  %6 = getelementptr inbounds nuw i8, ptr %0, i64 2680
  %7 = load i32, ptr %6, align 8, !tbaa !51
  %8 = icmp eq i32 %7, 0
  br i1 %8, label %9, label %10

9:                                                ; preds = %5
  tail call void (ptr, i32, i32, ptr, ptr, ptr, ...) @cvProcessError(ptr noundef nonnull %0, i32 noundef -101, i32 noundef 498, ptr noundef nonnull @__func__.CVDiagB, ptr noundef nonnull @.str, ptr noundef nonnull @.str.15) #8
  br label %24

10:                                               ; preds = %5
  %11 = getelementptr inbounds nuw i8, ptr %0, i64 2672
  %12 = load ptr, ptr %11, align 8, !tbaa !52
  %13 = getelementptr inbounds nuw i8, ptr %12, i64 56
  %14 = load i32, ptr %13, align 8, !tbaa !53
  %.not = icmp slt i32 %1, %14
  br i1 %.not, label %16, label %15

15:                                               ; preds = %10
  tail call void (ptr, i32, i32, ptr, ptr, ptr, ...) @cvProcessError(ptr noundef nonnull %0, i32 noundef -3, i32 noundef 507, ptr noundef nonnull @__func__.CVDiagB, ptr noundef nonnull @.str, ptr noundef nonnull @.str.16) #8
  br label %24

16:                                               ; preds = %10
  %17 = getelementptr inbounds nuw i8, ptr %12, i64 48
  br label %.lr.ph

.lr.ph:                                           ; preds = %.lr.ph, %16
  %.016.sink.in = phi ptr [ %20, %.lr.ph ], [ %17, %16 ]
  %.016.sink = load ptr, ptr %.016.sink.in, align 8, !tbaa !58, !nonnull !59, !noundef !59
  %18 = load i32, ptr %.016.sink, align 8, !tbaa !60
  %19 = icmp eq i32 %1, %18
  %20 = getelementptr inbounds nuw i8, ptr %.016.sink, i64 120
  br i1 %19, label %._crit_edge, label %.lr.ph

._crit_edge:                                      ; preds = %.lr.ph
  %21 = getelementptr inbounds nuw i8, ptr %.016.sink, i64 16
  %22 = load ptr, ptr %21, align 8, !tbaa !63
  %23 = tail call i32 @CVDiag(ptr noundef %22)
  br label %24

24:                                               ; preds = %._crit_edge, %15, %9, %4
  %.0 = phi i32 [ -1, %4 ], [ -101, %9 ], [ -3, %15 ], [ %23, %._crit_edge ]
  ret i32 %.0
}